; Function Attrs: nounwind uwtable
define zeroext i8 @l___private_Lean_Elab_PatternVar_0__Lean_Elab_Term_CollectPatternVars_isNextArgAccessible(ptr noundef readonly captures(none) %0) local_unnamed_addr #0 {
  %2 = getelementptr inbounds nuw i8, ptr %0, i64 16
  %3 = load ptr, ptr %2, align 8, !tbaa !11
  %4 = ptrtoint ptr %3 to i64
  %5 = and i64 %4, 1
  %.not.i33 = icmp eq i64 %5, 0
  br i1 %.not.i33, label %9, label %6

6:                                                ; preds = %1
  %7 = lshr i64 %4, 1
  %8 = trunc i64 %7 to i32
  br label %lean_obj_tag.exit

9:                                                ; preds = %1
  %10 = getelementptr i8, ptr %3, i64 4
  %.val.i = load i32, ptr %10, align 4
  %11 = lshr i32 %.val.i, 24
  br label %lean_obj_tag.exit

lean_obj_tag.exit:                                ; preds = %6, %9
  %.0.i34 = phi i32 [ %8, %6 ], [ %11, %9 ]
  %12 = icmp eq i32 %.0.i34, 0
  %13 = getelementptr inbounds nuw i8, ptr %0, i64 32
  %14 = load ptr, ptr %13, align 8, !tbaa !11
  %15 = ptrtoint ptr %14 to i64
  %16 = and i64 %15, 1
  br i1 %12, label %17, label %67

17:                                               ; preds = %lean_obj_tag.exit
  %18 = getelementptr inbounds nuw i8, ptr %0, i64 24
  %19 = load ptr, ptr %18, align 8, !tbaa !11
  %20 = getelementptr i8, ptr %19, i64 8
  %.val = load i64, ptr %20, align 8, !tbaa !4
  %21 = shl i64 %.val, 1
  %22 = or disjoint i64 %21, 1
  %23 = inttoptr i64 %22 to ptr
  %.not = icmp eq i64 %16, 0
  br i1 %.not, label %lean_dec.exit26, label %24, !prof !14

24:                                               ; preds = %17
  %25 = icmp ult ptr %14, %23
  br i1 %25, label %27, label %80

lean_dec.exit26:                                  ; preds = %17
  %26 = tail call zeroext i1 @lean_nat_big_lt(ptr noundef %14, ptr noundef nonnull %23) #6
  br i1 %26, label %27, label %80

27:                                               ; preds = %24, %lean_dec.exit26
  %28 = lshr i64 %15, 1
  %29 = getelementptr inbounds nuw i8, ptr %19, i64 24
  %30 = getelementptr inbounds nuw [0 x ptr], ptr %29, i64 0, i64 %28
  %31 = load ptr, ptr %30, align 8, !tbaa !11
  %32 = ptrtoint ptr %31 to i64
  %33 = and i64 %32, 1
  %.not.i.i = icmp eq i64 %33, 0
  br i1 %.not.i.i, label %34, label %lean_array_fget.exit

34:                                               ; preds = %27
  %.val.i.i.i = load i32, ptr %31, align 4, !tbaa !8
  %35 = icmp sgt i32 %.val.i.i.i, 0
  br i1 %35, label %36, label %38, !prof !15

36:                                               ; preds = %34
  %37 = add nuw i32 %.val.i.i.i, 1
  store i32 %37, ptr %31, align 4, !tbaa !8
  br label %lean_array_fget.exit

38:                                               ; preds = %34
  %.not.i.i.i = icmp eq i32 %.val.i.i.i, 0
  br i1 %.not.i.i.i, label %lean_array_fget.exit, label %39

39:                                               ; preds = %38
  tail call void @lean_inc_ref_cold(ptr noundef nonnull %31) #6
  br label %lean_array_fget.exit

lean_array_fget.exit:                             ; preds = %27, %36, %38, %39
  %40 = getelementptr inbounds nuw i8, ptr %31, i64 16
  %41 = load ptr, ptr %40, align 8, !tbaa !11
  %42 = ptrtoint ptr %41 to i64
  %43 = and i64 %42, 1
  %.not39 = icmp eq i64 %43, 0
  br i1 %.not39, label %44, label %lean_inc.exit

44:                                               ; preds = %lean_array_fget.exit
  %.val.i35 = load i32, ptr %41, align 4, !tbaa !8
  %45 = icmp sgt i32 %.val.i35, 0
  br i1 %45, label %46, label %48, !prof !15

46:                                               ; preds = %44
  %47 = add nuw i32 %.val.i35, 1
  store i32 %47, ptr %41, align 4, !tbaa !8
  br label %lean_inc.exit

48:                                               ; preds = %44
  %.not.i36 = icmp eq i32 %.val.i35, 0
  br i1 %.not.i36, label %lean_inc.exit, label %49

49:                                               ; preds = %48
  tail call void @lean_inc_ref_cold(ptr noundef nonnull %41) #6
  br label %lean_inc.exit

lean_inc.exit:                                    ; preds = %49, %48, %46, %lean_array_fget.exit
  br i1 %.not.i.i, label %50, label %lean_dec.exit25

50:                                               ; preds = %lean_inc.exit
  %51 = load i32, ptr %31, align 4, !tbaa !8
  %52 = icmp sgt i32 %51, 1
  br i1 %52, label %53, label %55, !prof !15

53:                                               ; preds = %50
  %54 = add nsw i32 %51, -1
  store i32 %54, ptr %31, align 4, !tbaa !8
  br label %lean_dec.exit25

55:                                               ; preds = %50
  %.not.i27 = icmp eq i32 %51, 0
  br i1 %.not.i27, label %lean_dec.exit25, label %56

56:                                               ; preds = %55
  tail call void @lean_dec_ref_cold(ptr noundef nonnull %31) #6
  br label %lean_dec.exit25

lean_dec.exit25:                                  ; preds = %56, %55, %53, %lean_inc.exit
  %57 = lshr i64 %42, 1
  %58 = trunc i64 %57 to i8
  br i1 %.not39, label %59, label %lean_dec.exit

59:                                               ; preds = %lean_dec.exit25
  %60 = load i32, ptr %41, align 4, !tbaa !8
  %61 = icmp sgt i32 %60, 1
  br i1 %61, label %62, label %64, !prof !15

62:                                               ; preds = %59
  %63 = add nsw i32 %60, -1
  store i32 %63, ptr %41, align 4, !tbaa !8
  br label %lean_dec.exit

64:                                               ; preds = %59
  %.not.i29 = icmp eq i32 %60, 0
  br i1 %.not.i29, label %lean_dec.exit, label %65

65:                                               ; preds = %64
  tail call void @lean_dec_ref_cold(ptr noundef nonnull %41) #6
  br label %lean_dec.exit

lean_dec.exit:                                    ; preds = %65, %64, %62, %lean_dec.exit25
  %66 = tail call zeroext i8 @l_Lean_BinderInfo_isExplicit(i8 noundef zeroext %58) #6
  br label %80

67:                                               ; preds = %lean_obj_tag.exit
  %68 = getelementptr inbounds nuw i8, ptr %3, i64 8
  %69 = load ptr, ptr %68, align 8, !tbaa !11
  %70 = getelementptr inbounds nuw i8, ptr %69, i64 32
  %71 = load ptr, ptr %70, align 8, !tbaa !11
  %72 = ptrtoint ptr %71 to i64
  %73 = and i64 %72, 1
  %74 = icmp ne i64 %73, 0
  %75 = icmp ne i64 %16, 0
  %or.cond = select i1 %74, i1 %75, i1 false
  br i1 %or.cond, label %76, label %.critedge.i31, !prof !20

76:                                               ; preds = %67
  %77 = icmp ule ptr %71, %14
  br label %lean_nat_le.exit

.critedge.i31:                                    ; preds = %67
  %78 = tail call zeroext i1 @lean_nat_big_le(ptr noundef %71, ptr noundef %14) #6
  br label %lean_nat_le.exit

lean_nat_le.exit:                                 ; preds = %76, %.critedge.i31
  %.0.i32 = phi i1 [ %77, %76 ], [ %78, %.critedge.i31 ]
  %79 = zext i1 %.0.i32 to i8
  br label %80

80:                                               ; preds = %24, %lean_dec.exit, %lean_dec.exit26, %lean_nat_le.exit
  %.1 = phi i8 [ %79, %lean_nat_le.exit ], [ %66, %lean_dec.exit ], [ 0, %lean_dec.exit26 ], [ 0, %24 ]
  ret i8 %.1
}